target datalayout = "e-m:e-p270:32:32-p271:32:32-p272:64:64-i64:64-i128:128-f80:128-n8:16:32:64-S128"
target triple = "x86_64-pc-linux-gnu"

; Function Attrs: nounwind uwtable
define internal void @filter_flt(ptr noundef %0, ptr noundef %1, i32 noundef %2, i32 noundef %3, float noundef %4) #0 {
  %6 = alloca ptr, align 8
  %7 = alloca ptr, align 8
  %8 = alloca i32, align 4
  %9 = alloca i32, align 4
  %10 = alloca float, align 4
  %11 = alloca ptr, align 8
  %12 = alloca ptr, align 8
  %13 = alloca i32, align 4
  %14 = alloca i32, align 4
  %15 = alloca float, align 4
  store ptr %0, ptr %6, align 8, !tbaa !50
  store ptr %1, ptr %7, align 8, !tbaa !50
  store i32 %2, ptr %8, align 4, !tbaa !51
  store i32 %3, ptr %9, align 4, !tbaa !51
  store float %4, ptr %10, align 4, !tbaa !52
  call void @llvm.lifetime.start.p0(i64 8, ptr %11) #4
  %16 = load ptr, ptr %7, align 8, !tbaa !50
  %17 = getelementptr inbounds ptr, ptr %16, i64 0
  %18 = load ptr, ptr %17, align 8, !tbaa !53
  store ptr %18, ptr %11, align 8, !tbaa !54
  call void @llvm.lifetime.start.p0(i64 8, ptr %12) #4
  %19 = load ptr, ptr %6, align 8, !tbaa !50
  %20 = getelementptr inbounds ptr, ptr %19, i64 0
  %21 = load ptr, ptr %20, align 8, !tbaa !53
  store ptr %21, ptr %12, align 8, !tbaa !54
  call void @llvm.lifetime.start.p0(i64 4, ptr %13) #4
  call void @llvm.lifetime.start.p0(i64 4, ptr %14) #4
  store i32 0, ptr %13, align 4, !tbaa !51
  br label %22

22:                                               ; preds = %63, %5
  %23 = load i32, ptr %13, align 4, !tbaa !51
  %24 = load i32, ptr %8, align 4, !tbaa !51
  %25 = icmp slt i32 %23, %24
  br i1 %25, label %26, label %66

26:                                               ; preds = %22
  store i32 0, ptr %14, align 4, !tbaa !51
  br label %27

27:                                               ; preds = %51, %26
  %28 = load i32, ptr %14, align 4, !tbaa !51
  %29 = load i32, ptr %9, align 4, !tbaa !51
  %30 = icmp slt i32 %28, %29
  br i1 %30, label %31, label %54

31:                                               ; preds = %27
  call void @llvm.lifetime.start.p0(i64 4, ptr %15) #4
  %32 = load ptr, ptr %11, align 8, !tbaa !54
  %33 = load i32, ptr %14, align 4, !tbaa !51
  %34 = sext i32 %33 to i64
  %35 = getelementptr inbounds float, ptr %32, i64 %34
  %36 = load float, ptr %35, align 4, !tbaa !52
  %37 = fpext nsz float %36 to double
  %38 = fmul nsz double %37, 0x3FF921FB54442D18
  %39 = fptrunc nsz double %38 to float
  store float %39, ptr %15, align 4, !tbaa !52
  %40 = load float, ptr %15, align 4, !tbaa !52
  %41 = load float, ptr %10, align 4, !tbaa !52
  %42 = load float, ptr %15, align 4, !tbaa !52
  %43 = fmul nsz float %42, 4.000000e+00
  %44 = call nsz float @llvm.sin.f32(float %43)
  %45 = call nsz float @llvm.fmuladd.f32(float %41, float %44, float %40)
  %46 = call nsz float @llvm.sin.f32(float %45)
  %47 = load ptr, ptr %12, align 8, !tbaa !54
  %48 = load i32, ptr %14, align 4, !tbaa !51
  %49 = sext i32 %48 to i64
  %50 = getelementptr inbounds float, ptr %47, i64 %49
  store float %46, ptr %50, align 4, !tbaa !52
  call void @llvm.lifetime.end.p0(i64 4, ptr %15) #4
  br label %51

51:                                               ; preds = %31
  %52 = load i32, ptr %14, align 4, !tbaa !51
  %53 = add nsw i32 %52, 1
  store i32 %53, ptr %14, align 4, !tbaa !51
  br label %27, !llvm.loop !56

54:                                               ; preds = %27
  %55 = load i32, ptr %14, align 4, !tbaa !51
  %56 = load ptr, ptr %12, align 8, !tbaa !54
  %57 = sext i32 %55 to i64
  %58 = getelementptr inbounds float, ptr %56, i64 %57
  store ptr %58, ptr %12, align 8, !tbaa !54
  %59 = load i32, ptr %14, align 4, !tbaa !51
  %60 = load ptr, ptr %11, align 8, !tbaa !54
  %61 = sext i32 %59 to i64
  %62 = getelementptr inbounds float, ptr %60, i64 %61
  store ptr %62, ptr %11, align 8, !tbaa !54
  br label %63

63:                                               ; preds = %54
  %64 = load i32, ptr %13, align 4, !tbaa !51
  %65 = add nsw i32 %64, 1
  store i32 %65, ptr %13, align 4, !tbaa !51
  br label %22, !llvm.loop !58

66:                                               ; preds = %22
  call void @llvm.lifetime.end.p0(i64 4, ptr %14) #4
  call void @llvm.lifetime.end.p0(i64 4, ptr %13) #4
  call void @llvm.lifetime.end.p0(i64 8, ptr %12) #4
  call void @llvm.lifetime.end.p0(i64 8, ptr %11) #4
  ret void
}