; Function Attrs: nofree norecurse nosync nounwind memory(readwrite, inaccessiblemem: none) uwtable
define internal void @filter_flt(ptr noundef readonly captures(none) %0, ptr noundef readonly captures(none) %1, i32 noundef %2, i32 noundef %3, float noundef %4) #3 {
  %6 = icmp sgt i32 %2, 0
  %7 = icmp sgt i32 %3, 0
  %or.cond = and i1 %6, %7
  br i1 %or.cond, label %.preheader.us.preheader, label %._crit_edge25

.preheader.us.preheader:                          ; preds = %5
  %8 = load ptr, ptr %1, align 8, !tbaa !47
  %9 = load ptr, ptr %0, align 8, !tbaa !47
  %wide.trip.count = zext nneg i32 %3 to i64
  br label %.preheader.us

.preheader.us:                                    ; preds = %.preheader.us.preheader, %._crit_edge.us
  %.024.us = phi ptr [ %22, %._crit_edge.us ], [ %8, %.preheader.us.preheader ]
  %.01923.us = phi i32 [ %23, %._crit_edge.us ], [ 0, %.preheader.us.preheader ]
  %.02022.us = phi ptr [ %21, %._crit_edge.us ], [ %9, %.preheader.us.preheader ]
  br label %10

10:                                               ; preds = %.preheader.us, %10
  %indvars.iv = phi i64 [ 0, %.preheader.us ], [ %indvars.iv.next, %10 ]
  %11 = getelementptr inbounds nuw float, ptr %.024.us, i64 %indvars.iv
  %12 = load float, ptr %11, align 4, !tbaa !48
  %13 = fpext nsz float %12 to double
  %14 = fmul nsz double %13, 0x3FF921FB54442D18
  %15 = fptrunc nsz double %14 to float
  %16 = fmul nsz float %15, 4.000000e+00
  %17 = tail call nsz float @llvm.sin.f32(float %16)
  %18 = tail call nsz float @llvm.fmuladd.f32(float %4, float %17, float %15)
  %19 = tail call nsz float @llvm.sin.f32(float %18)
  %20 = getelementptr inbounds nuw float, ptr %.02022.us, i64 %indvars.iv
  store float %19, ptr %20, align 4, !tbaa !48
  %indvars.iv.next = add nuw nsw i64 %indvars.iv, 1
  %exitcond.not = icmp eq i64 %indvars.iv.next, %wide.trip.count
  br i1 %exitcond.not, label %._crit_edge.us, label %10, !llvm.loop !49

._crit_edge.us:                                   ; preds = %10
  %21 = getelementptr inbounds nuw float, ptr %.02022.us, i64 %wide.trip.count
  %22 = getelementptr inbounds nuw float, ptr %.024.us, i64 %wide.trip.count
  %23 = add nuw nsw i32 %.01923.us, 1
  %exitcond28.not = icmp eq i32 %23, %2
  br i1 %exitcond28.not, label %._crit_edge25, label %.preheader.us, !llvm.loop !51

._crit_edge25:                                    ; preds = %._crit_edge.us, %5
  ret void
}